; Function Attrs: nounwind uwtable
define internal fastcc void @_jumbleCreateStatsStmt(ptr noundef %0, ptr noundef nonnull readonly captures(none) %1) unnamed_addr #0 {
  %3 = getelementptr inbounds nuw i8, ptr %1, i64 8
  %4 = load ptr, ptr %3, align 8
  tail call fastcc void @_jumbleNode(ptr noundef %0, ptr noundef %4)
  %5 = getelementptr inbounds nuw i8, ptr %1, i64 16
  %6 = load ptr, ptr %5, align 8
  tail call fastcc void @_jumbleNode(ptr noundef %0, ptr noundef %6)
  %7 = getelementptr inbounds nuw i8, ptr %1, i64 24
  %8 = load ptr, ptr %7, align 8
  tail call fastcc void @_jumbleNode(ptr noundef %0, ptr noundef %8)
  %9 = getelementptr inbounds nuw i8, ptr %1, i64 32
  %10 = load ptr, ptr %9, align 8
  tail call fastcc void @_jumbleNode(ptr noundef %0, ptr noundef %10)
  %11 = getelementptr inbounds nuw i8, ptr %1, i64 40
  %12 = load ptr, ptr %11, align 8
  %.not = icmp eq ptr %12, null
  %.pre37 = load ptr, ptr %0, align 8
  br i1 %.not, label %._crit_edge, label %13

._crit_edge:                                      ; preds = %2
  %.phi.trans.insert = getelementptr inbounds nuw i8, ptr %0, i64 8
  %.pre38 = load i64, ptr %.phi.trans.insert, align 8
  br label %28

13:                                               ; preds = %2
  %14 = tail call i64 @strlen(ptr noundef nonnull dereferenceable(1) %12) #8
  %15 = add i64 %14, 1
  %16 = getelementptr inbounds nuw i8, ptr %0, i64 8
  %17 = load i64, ptr %16, align 8
  %.not23.i = icmp eq i64 %15, 0
  br i1 %.not23.i, label %AppendJumble.exit, label %.lr.ph.i

.lr.ph.i:                                         ; preds = %13, %21
  %.026.i = phi ptr [ %26, %21 ], [ %12, %13 ]
  %.02125.i = phi i64 [ %27, %21 ], [ %15, %13 ]
  %.02224.i = phi i64 [ %25, %21 ], [ %17, %13 ]
  %18 = icmp ugt i64 %.02224.i, 1023
  br i1 %18, label %19, label %21

19:                                               ; preds = %.lr.ph.i
  %20 = tail call i64 @hash_bytes_extended(ptr noundef %.pre37, i32 noundef 1024, i64 noundef 0) #9
  store i64 %20, ptr %.pre37, align 1
  br label %21

21:                                               ; preds = %19, %.lr.ph.i
  %.1.i = phi i64 [ 8, %19 ], [ %.02224.i, %.lr.ph.i ]
  %22 = sub nuw nsw i64 1024, %.1.i
  %23 = tail call i64 @llvm.umin.i64(i64 %.02125.i, i64 %22)
  %24 = getelementptr inbounds nuw i8, ptr %.pre37, i64 %.1.i
  tail call void @llvm.memcpy.p0.p0.i64(ptr noundef nonnull align 1 dereferenceable(1) %24, ptr noundef nonnull align 1 dereferenceable(1) %.026.i, i64 %23, i1 false)
  %25 = add nuw nsw i64 %23, %.1.i
  %26 = getelementptr inbounds nuw i8, ptr %.026.i, i64 %23
  %27 = sub i64 %.02125.i, %23
  %.not.i = icmp eq i64 %27, 0
  br i1 %.not.i, label %AppendJumble.exit.loopexit, label %.lr.ph.i, !llvm.loop !7

AppendJumble.exit.loopexit:                       ; preds = %21
  %.pre.pre = load ptr, ptr %0, align 8
  br label %AppendJumble.exit

AppendJumble.exit:                                ; preds = %AppendJumble.exit.loopexit, %13
  %.pre = phi ptr [ %.pre37, %13 ], [ %.pre.pre, %AppendJumble.exit.loopexit ]
  %.022.lcssa.i = phi i64 [ %17, %13 ], [ %25, %AppendJumble.exit.loopexit ]
  store i64 %.022.lcssa.i, ptr %16, align 8
  br label %28

28:                                               ; preds = %._crit_edge, %AppendJumble.exit
  %29 = phi i64 [ %.022.lcssa.i, %AppendJumble.exit ], [ %.pre38, %._crit_edge ]
  %30 = phi ptr [ %.pre, %AppendJumble.exit ], [ %.pre37, %._crit_edge ]
  %31 = getelementptr inbounds nuw i8, ptr %1, i64 48
  %32 = getelementptr inbounds nuw i8, ptr %0, i64 8
  br label %.lr.ph.i17

.lr.ph.i17:                                       ; preds = %36, %28
  %.026.i18 = phi ptr [ %41, %36 ], [ %31, %28 ]
  %.02125.i19 = phi i64 [ %42, %36 ], [ 1, %28 ]
  %.02224.i20 = phi i64 [ %40, %36 ], [ %29, %28 ]
  %33 = icmp ugt i64 %.02224.i20, 1023
  br i1 %33, label %34, label %36

34:                                               ; preds = %.lr.ph.i17
  %35 = tail call i64 @hash_bytes_extended(ptr noundef %30, i32 noundef 1024, i64 noundef 0) #9
  store i64 %35, ptr %30, align 1
  br label %36

36:                                               ; preds = %34, %.lr.ph.i17
  %.1.i21 = phi i64 [ 8, %34 ], [ %.02224.i20, %.lr.ph.i17 ]
  %37 = sub nuw nsw i64 1024, %.1.i21
  %38 = tail call i64 @llvm.umin.i64(i64 %.02125.i19, i64 %37)
  %39 = getelementptr inbounds nuw i8, ptr %30, i64 %.1.i21
  tail call void @llvm.memcpy.p0.p0.i64(ptr noundef nonnull align 1 dereferenceable(1) %39, ptr noundef nonnull align 1 dereferenceable(1) %.026.i18, i64 %38, i1 false)
  %40 = add nuw nsw i64 %38, %.1.i21
  %41 = getelementptr inbounds nuw i8, ptr %.026.i18, i64 %38
  %42 = sub i64 %.02125.i19, %38
  %.not.i22 = icmp eq i64 %42, 0
  br i1 %.not.i22, label %AppendJumble.exit24, label %.lr.ph.i17, !llvm.loop !7

AppendJumble.exit24:                              ; preds = %36
  store i64 %40, ptr %32, align 8
  %43 = getelementptr inbounds nuw i8, ptr %1, i64 49
  %44 = load ptr, ptr %0, align 8
  br label %.lr.ph.i25

.lr.ph.i25:                                       ; preds = %48, %AppendJumble.exit24
  %.026.i26 = phi ptr [ %53, %48 ], [ %43, %AppendJumble.exit24 ]
  %.02125.i27 = phi i64 [ %54, %48 ], [ 1, %AppendJumble.exit24 ]
  %.02224.i28 = phi i64 [ %52, %48 ], [ %40, %AppendJumble.exit24 ]
  %45 = icmp ugt i64 %.02224.i28, 1023
  br i1 %45, label %46, label %48

46:                                               ; preds = %.lr.ph.i25
  %47 = tail call i64 @hash_bytes_extended(ptr noundef %44, i32 noundef 1024, i64 noundef 0) #9
  store i64 %47, ptr %44, align 1
  br label %48

48:                                               ; preds = %46, %.lr.ph.i25
  %.1.i29 = phi i64 [ 8, %46 ], [ %.02224.i28, %.lr.ph.i25 ]
  %49 = sub nuw nsw i64 1024, %.1.i29
  %50 = tail call i64 @llvm.umin.i64(i64 %.02125.i27, i64 %49)
  %51 = getelementptr inbounds nuw i8, ptr %44, i64 %.1.i29
  tail call void @llvm.memcpy.p0.p0.i64(ptr noundef nonnull align 1 dereferenceable(1) %51, ptr noundef nonnull align 1 dereferenceable(1) %.026.i26, i64 %50, i1 false)
  %52 = add nuw nsw i64 %50, %.1.i29
  %53 = getelementptr inbounds nuw i8, ptr %.026.i26, i64 %50
  %54 = sub i64 %.02125.i27, %50
  %.not.i30 = icmp eq i64 %54, 0
  br i1 %.not.i30, label %AppendJumble.exit32, label %.lr.ph.i25, !llvm.loop !7

AppendJumble.exit32:                              ; preds = %48
  store i64 %52, ptr %32, align 8
  ret void
}